; ModuleID = '46/3400.c'
source_filename = "46/3400.c"
target datalayout = "e-m:e-p270:32:32-p271:32:32-p272:64:64-i64:64-f80:128-n8:16:32:64-S128"
target triple = "x86_64-pc-linux-gnu"

@.str = private unnamed_addr constant [5 x i8] c"%d%d\00", align 1
@.str.1 = private unnamed_addr constant [3 x i8] c"%d\00", align 1
@.str.2 = private unnamed_addr constant [4 x i8] c"%d\0A\00", align 1

; Function Attrs: noinline nounwind uwtable
define dso_local i32 @main() #0 {
  %1 = alloca i32, align 4
  %2 = alloca [100 x [100 x i32]], align 16
  %3 = alloca i32, align 4
  %4 = alloca i32, align 4
  %5 = alloca i32, align 4
  %6 = alloca i32, align 4
  %7 = alloca i32, align 4
  %8 = alloca i32, align 4
  store i32 0, i32* %1, align 4
  %9 = call i32 (i8*, ...) @__isoc99_scanf(i8* getelementptr inbounds ([5 x i8], [5 x i8]* @.str, i64 0, i64 0), i32* %3, i32* %4)
  store i32 0, i32* %6, align 4
  br label %10

10:                                               ; preds = %31, %0
  %11 = load i32, i32* %6, align 4
  %12 = load i32, i32* %3, align 4
  %13 = icmp slt i32 %11, %12
  br i1 %13, label %14, label %34

14:                                               ; preds = %10
  store i32 0, i32* %7, align 4
  br label %15

15:                                               ; preds = %27, %14
  %16 = load i32, i32* %7, align 4
  %17 = load i32, i32* %4, align 4
  %18 = icmp slt i32 %16, %17
  br i1 %18, label %19, label %30

19:                                               ; preds = %15
  %20 = load i32, i32* %6, align 4
  %21 = sext i32 %20 to i64
  %22 = getelementptr inbounds [100 x [100 x i32]], [100 x [100 x i32]]* %2, i64 0, i64 %21
  %23 = load i32, i32* %7, align 4
  %24 = sext i32 %23 to i64
  %25 = getelementptr inbounds [100 x i32], [100 x i32]* %22, i64 0, i64 %24
  %26 = call i32 (i8*, ...) @__isoc99_scanf(i8* getelementptr inbounds ([3 x i8], [3 x i8]* @.str.1, i64 0, i64 0), i32* %25)
  br label %27

27:                                               ; preds = %19
  %28 = load i32, i32* %7, align 4
  %29 = add nsw i32 %28, 1
  store i32 %29, i32* %7, align 4
  br label %15

30:                                               ; preds = %15
  br label %31

31:                                               ; preds = %30
  %32 = load i32, i32* %6, align 4
  %33 = add nsw i32 %32, 1
  store i32 %33, i32* %6, align 4
  br label %10

34:                                               ; preds = %10
  %35 = load i32, i32* %3, align 4
  %36 = load i32, i32* %4, align 4
  %37 = icmp slt i32 %35, %36
  br i1 %37, label %38, label %40

38:                                               ; preds = %34
  %39 = load i32, i32* %3, align 4
  store i32 %39, i32* %5, align 4
  br label %42

40:                                               ; preds = %34
  %41 = load i32, i32* %4, align 4
  store i32 %41, i32* %5, align 4
  br label %42

42:                                               ; preds = %40, %38
  store i32 0, i32* %8, align 4
  br label %43

43:                                               ; preds = %139, %42
  %44 = load i32, i32* %8, align 4
  %45 = load i32, i32* %5, align 4
  %46 = sdiv i32 %45, 2
  %47 = icmp slt i32 %44, %46
  br i1 %47, label %48, label %142

48:                                               ; preds = %43
  %49 = load i32, i32* %8, align 4
  store i32 %49, i32* %7, align 4
  br label %50

50:                                               ; preds = %66, %48
  %51 = load i32, i32* %7, align 4
  %52 = load i32, i32* %4, align 4
  %53 = load i32, i32* %8, align 4
  %54 = sub nsw i32 %52, %53
  %55 = sub nsw i32 %54, 1
  %56 = icmp slt i32 %51, %55
  br i1 %56, label %57, label %69

57:                                               ; preds = %50
  %58 = load i32, i32* %8, align 4
  %59 = sext i32 %58 to i64
  %60 = getelementptr inbounds [100 x [100 x i32]], [100 x [100 x i32]]* %2, i64 0, i64 %59
  %61 = load i32, i32* %7, align 4
  %62 = sext i32 %61 to i64
  %63 = getelementptr inbounds [100 x i32], [100 x i32]* %60, i64 0, i64 %62
  %64 = load i32, i32* %63, align 4
  %65 = call i32 (i8*, ...) @printf(i8* getelementptr inbounds ([4 x i8], [4 x i8]* @.str.2, i64 0, i64 0), i32 %64)
  br label %66

66:                                               ; preds = %57
  %67 = load i32, i32* %7, align 4
  %68 = add nsw i32 %67, 1
  store i32 %68, i32* %7, align 4
  br label %50

69:                                               ; preds = %50
  %70 = load i32, i32* %8, align 4
  store i32 %70, i32* %7, align 4
  br label %71

71:                                               ; preds = %90, %69
  %72 = load i32, i32* %7, align 4
  %73 = load i32, i32* %3, align 4
  %74 = sub nsw i32 %73, 1
  %75 = load i32, i32* %8, align 4
  %76 = sub nsw i32 %74, %75
  %77 = icmp slt i32 %72, %76
  br i1 %77, label %78, label %93

78:                                               ; preds = %71
  %79 = load i32, i32* %7, align 4
  %80 = sext i32 %79 to i64
  %81 = getelementptr inbounds [100 x [100 x i32]], [100 x [100 x i32]]* %2, i64 0, i64 %80
  %82 = load i32, i32* %4, align 4
  %83 = sub nsw i32 %82, 1
  %84 = load i32, i32* %8, align 4
  %85 = sub nsw i32 %83, %84
  %86 = sext i32 %85 to i64
  %87 = getelementptr inbounds [100 x i32], [100 x i32]* %81, i64 0, i64 %86
  %88 = load i32, i32* %87, align 4
  %89 = call i32 (i8*, ...) @printf(i8* getelementptr inbounds ([4 x i8], [4 x i8]* @.str.2, i64 0, i64 0), i32 %88)
  br label %90

90:                                               ; preds = %78
  %91 = load i32, i32* %7, align 4
  %92 = add nsw i32 %91, 1
  store i32 %92, i32* %7, align 4
  br label %71

93:                                               ; preds = %71
  %94 = load i32, i32* %4, align 4
  %95 = sub nsw i32 %94, 1
  %96 = load i32, i32* %8, align 4
  %97 = sub nsw i32 %95, %96
  store i32 %97, i32* %7, align 4
  br label %98

98:                                               ; preds = %114, %93
  %99 = load i32, i32* %7, align 4
  %100 = load i32, i32* %8, align 4
  %101 = icmp sgt i32 %99, %100
  br i1 %101, label %102, label %117

102:                                              ; preds = %98
  %103 = load i32, i32* %3, align 4
  %104 = sub nsw i32 %103, 1
  %105 = load i32, i32* %8, align 4
  %106 = sub nsw i32 %104, %105
  %107 = sext i32 %106 to i64
  %108 = getelementptr inbounds [100 x [100 x i32]], [100 x [100 x i32]]* %2, i64 0, i64 %107
  %109 = load i32, i32* %7, align 4
  %110 = sext i32 %109 to i64
  %111 = getelementptr inbounds [100 x i32], [100 x i32]* %108, i64 0, i64 %110
  %112 = load i32, i32* %111, align 4
  %113 = call i32 (i8*, ...) @printf(i8* getelementptr inbounds ([4 x i8], [4 x i8]* @.str.2, i64 0, i64 0), i32 %112)
  br label %114

114:                                              ; preds = %102
  %115 = load i32, i32* %7, align 4
  %116 = add nsw i32 %115, -1
  store i32 %116, i32* %7, align 4
  br label %98

117:                                              ; preds = %98
  %118 = load i32, i32* %3, align 4
  %119 = sub nsw i32 %118, 1
  %120 = load i32, i32* %8, align 4
  %121 = sub nsw i32 %119, %120
  store i32 %121, i32* %7, align 4
  br label %122

122:                                              ; preds = %135, %117
  %123 = load i32, i32* %7, align 4
  %124 = load i32, i32* %8, align 4
  %125 = icmp sgt i32 %123, %124
  br i1 %125, label %126, label %138

126:                                              ; preds = %122
  %127 = load i32, i32* %7, align 4
  %128 = sext i32 %127 to i64
  %129 = getelementptr inbounds [100 x [100 x i32]], [100 x [100 x i32]]* %2, i64 0, i64 %128
  %130 = load i32, i32* %8, align 4
  %131 = sext i32 %130 to i64
  %132 = getelementptr inbounds [100 x i32], [100 x i32]* %129, i64 0, i64 %131
  %133 = load i32, i32* %132, align 4
  %134 = call i32 (i8*, ...) @printf(i8* getelementptr inbounds ([4 x i8], [4 x i8]* @.str.2, i64 0, i64 0), i32 %133)
  br label %135

135:                                              ; preds = %126
  %136 = load i32, i32* %7, align 4
  %137 = add nsw i32 %136, -1
  store i32 %137, i32* %7, align 4
  br label %122

138:                                              ; preds = %122
  br label %139

139:                                              ; preds = %138
  %140 = load i32, i32* %8, align 4
  %141 = add nsw i32 %140, 1
  store i32 %141, i32* %8, align 4
  br label %43

142:                                              ; preds = %43
  %143 = load i32, i32* %5, align 4
  %144 = srem i32 %143, 2
  %145 = icmp eq i32 %144, 1
  br i1 %145, label %146, label %220

146:                                              ; preds = %142
  %147 = load i32, i32* %3, align 4
  %148 = load i32, i32* %4, align 4
  %149 = icmp slt i32 %147, %148
  br i1 %149, label %150, label %174

150:                                              ; preds = %146
  %151 = load i32, i32* %5, align 4
  %152 = sdiv i32 %151, 2
  store i32 %152, i32* %6, align 4
  br label %153

153:                                              ; preds = %170, %150
  %154 = load i32, i32* %6, align 4
  %155 = load i32, i32* %4, align 4
  %156 = load i32, i32* %5, align 4
  %157 = sdiv i32 %156, 2
  %158 = sub nsw i32 %155, %157
  %159 = icmp slt i32 %154, %158
  br i1 %159, label %160, label %173

160:                                              ; preds = %153
  %161 = load i32, i32* %3, align 4
  %162 = sdiv i32 %161, 2
  %163 = sext i32 %162 to i64
  %164 = getelementptr inbounds [100 x [100 x i32]], [100 x [100 x i32]]* %2, i64 0, i64 %163
  %165 = load i32, i32* %6, align 4
  %166 = sext i32 %165 to i64
  %167 = getelementptr inbounds [100 x i32], [100 x i32]* %164, i64 0, i64 %166
  %168 = load i32, i32* %167, align 4
  %169 = call i32 (i8*, ...) @printf(i8* getelementptr inbounds ([4 x i8], [4 x i8]* @.str.2, i64 0, i64 0), i32 %168)
  br label %170

170:                                              ; preds = %160
  %171 = load i32, i32* %6, align 4
  %172 = add nsw i32 %171, 1
  store i32 %172, i32* %6, align 4
  br label %153

173:                                              ; preds = %153
  br label %219

174:                                              ; preds = %146
  %175 = load i32, i32* %3, align 4
  %176 = load i32, i32* %4, align 4
  %177 = icmp sgt i32 %175, %176
  br i1 %177, label %178, label %202

178:                                              ; preds = %174
  %179 = load i32, i32* %5, align 4
  %180 = sdiv i32 %179, 2
  store i32 %180, i32* %6, align 4
  br label %181

181:                                              ; preds = %198, %178
  %182 = load i32, i32* %6, align 4
  %183 = load i32, i32* %3, align 4
  %184 = load i32, i32* %5, align 4
  %185 = sdiv i32 %184, 2
  %186 = sub nsw i32 %183, %185
  %187 = icmp slt i32 %182, %186
  br i1 %187, label %188, label %201

188:                                              ; preds = %181
  %189 = load i32, i32* %6, align 4
  %190 = sext i32 %189 to i64
  %191 = getelementptr inbounds [100 x [100 x i32]], [100 x [100 x i32]]* %2, i64 0, i64 %190
  %192 = load i32, i32* %4, align 4
  %193 = sdiv i32 %192, 2
  %194 = sext i32 %193 to i64
  %195 = getelementptr inbounds [100 x i32], [100 x i32]* %191, i64 0, i64 %194
  %196 = load i32, i32* %195, align 4
  %197 = call i32 (i8*, ...) @printf(i8* getelementptr inbounds ([4 x i8], [4 x i8]* @.str.2, i64 0, i64 0), i32 %196)
  br label %198

198:                                              ; preds = %188
  %199 = load i32, i32* %6, align 4
  %200 = add nsw i32 %199, 1
  store i32 %200, i32* %6, align 4
  br label %181

201:                                              ; preds = %181
  br label %218

202:                                              ; preds = %174
  %203 = load i32, i32* %3, align 4
  %204 = load i32, i32* %4, align 4
  %205 = icmp eq i32 %203, %204
  br i1 %205, label %206, label %217

206:                                              ; preds = %202
  %207 = load i32, i32* %4, align 4
  %208 = sdiv i32 %207, 2
  %209 = sext i32 %208 to i64
  %210 = getelementptr inbounds [100 x [100 x i32]], [100 x [100 x i32]]* %2, i64 0, i64 %209
  %211 = load i32, i32* %4, align 4
  %212 = sdiv i32 %211, 2
  %213 = sext i32 %212 to i64
  %214 = getelementptr inbounds [100 x i32], [100 x i32]* %210, i64 0, i64 %213
  %215 = load i32, i32* %214, align 4
  %216 = call i32 (i8*, ...) @printf(i8* getelementptr inbounds ([4 x i8], [4 x i8]* @.str.2, i64 0, i64 0), i32 %215)
  br label %217

217:                                              ; preds = %206, %202
  br label %218

218:                                              ; preds = %217, %201
  br label %219

219:                                              ; preds = %218, %173
  br label %220

220:                                              ; preds = %219, %142
  ret i32 0
}

declare dso_local i32 @__isoc99_scanf(i8*, ...) #1

declare dso_local i32 @printf(i8*, ...) #1


!llvm.module.flags = !{!0}
!llvm.ident = !{!1}

!0 = !{i32 1, !"wchar_size", i32 4}
!1 = !{!"clang version 10.0.0-4ubuntu1 "}
